; Function Attrs: mustprogress uwtable
define internal void @_ZZN9grpc_core20ChannelArgTypeTraitsINS_12_GLOBAL__N_111XdsResolver17XdsConfigSelectorEvE6VTableEvENUlPvE0_8__invokeES5_(ptr noundef %p) #3 align 2 {
entry:
  %cmp.not.i = icmp eq ptr %p, null
  br i1 %cmp.not.i, label %_ZZN9grpc_core20ChannelArgTypeTraitsINS_12_GLOBAL__N_111XdsResolver17XdsConfigSelectorEvE6VTableEvENKUlPvE0_clES5_.exit, label %if.then.i

if.then.i:                                        ; preds = %entry
  %refs_.i.i = getelementptr inbounds i8, ptr %p, i64 8
  %0 = atomicrmw sub ptr %refs_.i.i, i64 1 acq_rel, align 8
  %cmp.i.i.i = icmp eq i64 %0, 1
  br i1 %cmp.i.i.i, label %if.then.i.i, label %_ZZN9grpc_core20ChannelArgTypeTraitsINS_12_GLOBAL__N_111XdsResolver17XdsConfigSelectorEvE6VTableEvENKUlPvE0_clES5_.exit

if.then.i.i:                                      ; preds = %if.then.i
  %vtable.i.i.i = load ptr, ptr %p, align 8
  %vfn.i.i.i = getelementptr inbounds i8, ptr %vtable.i.i.i, i64 8
  %1 = load ptr, ptr %vfn.i.i.i, align 8
  tail call void %1(ptr noundef nonnull align 8 dereferenceable(16) %p) #28
  br label %_ZZN9grpc_core20ChannelArgTypeTraitsINS_12_GLOBAL__N_111XdsResolver17XdsConfigSelectorEvE6VTableEvENKUlPvE0_clES5_.exit

_ZZN9grpc_core20ChannelArgTypeTraitsINS_12_GLOBAL__N_111XdsResolver17XdsConfigSelectorEvE6VTableEvENKUlPvE0_clES5_.exit: ; preds = %entry, %if.then.i, %if.then.i.i
  ret void
}